; Function Attrs: mustprogress nofree norecurse nosync nounwind willreturn memory(argmem: readwrite) uwtable
define noundef nonnull align 4 dereferenceable(16) ptr @_ZN32pxrInternal_v0_24__pxrReserved__10GfMatrix2f11SetDiagonalERKNS_7GfVec2fE(ptr noundef nonnull returned writeonly align 4 dereferenceable(16) initializes((0, 16)) %0, ptr noundef nonnull readonly align 4 captures(none) dereferenceable(8) %1) local_unnamed_addr #2 align 2 {
  %3 = load float, ptr %1, align 4
  store float %3, ptr %0, align 4
  %4 = getelementptr inbounds nuw i8, ptr %0, i64 4
  store float 0.000000e+00, ptr %4, align 4
  %5 = getelementptr inbounds nuw i8, ptr %0, i64 8
  store float 0.000000e+00, ptr %5, align 4
  %6 = getelementptr inbounds nuw i8, ptr %1, i64 4
  %7 = load float, ptr %6, align 4
  %8 = getelementptr inbounds nuw i8, ptr %0, i64 12
  store float %7, ptr %8, align 4
  ret ptr %0
}